#include <math.h>
#include <stdio.h>
#include <stdlib.h>
#include <string.h>

void main()
{
	char s[310];
	gets(s);
	int i,j=-1,k,a[300]={0},len;
	len=strlen(s);
	int flag=0;
	for(i=0;i<len;i++)
	{
		if(s[i]>='0'&&s[i]<='9'&&flag==0)
		{
			j++;
			a[j]=s[i]-'0';
			flag=1;
		}
		else if(s[i]>='0'&&s[i]<='9'&&flag==1)
		{
			a[j]=a[j]*10+s[i]-'0';
			flag=1;
		}
		else flag=0;
	}
	int x=100;
	if(j==0)
		printf("No");
	else
	{	x=0;
	for(i=1;i<=j;i++)
		if(a[i]!=a[0])
			x=1;
	if(x==0)
		printf("No");
	else
	{j++;
	for(k=0;k<j;k++)
		for(i=k+1;i<j;i++)
			if(i!=k&&a[i]==a[k])
				a[k]=-1;
	for(k=0;k<j-1;k++)
		for(i=0;i<j-1-k;i++)
			if(a[i]<a[i+1])
			{
				int t=a[i];
				a[i]=a[i+1];
				a[i+1]=t;
			}
			printf("%d",a[1]);}}
	
}

