; ModuleID = '22/609.c'
source_filename = "22/609.c"
target datalayout = "e-m:e-p270:32:32-p271:32:32-p272:64:64-i64:64-f80:128-n8:16:32:64-S128"
target triple = "x86_64-pc-linux-gnu"

@.str = private unnamed_addr constant [3 x i8] c"No\00", align 1
@.str.1 = private unnamed_addr constant [3 x i8] c"%d\00", align 1

; Function Attrs: noinline nounwind uwtable
define dso_local void @main() #0 {
  %1 = alloca [310 x i8], align 16
  %2 = alloca i32, align 4
  %3 = alloca i32, align 4
  %4 = alloca i32, align 4
  %5 = alloca [300 x i32], align 16
  %6 = alloca i32, align 4
  %7 = alloca i32, align 4
  %8 = alloca i32, align 4
  %9 = alloca i32, align 4
  %10 = getelementptr inbounds [310 x i8], [310 x i8]* %1, i64 0, i64 0
  %11 = call i32 (i8*, ...) bitcast (i32 (...)* @gets to i32 (i8*, ...)*)(i8* %10)
  store i32 -1, i32* %3, align 4
  %12 = bitcast [300 x i32]* %5 to i8*
  call void @llvm.memset.p0i8.i64(i8* align 16 %12, i8 0, i64 1200, i1 false)
  %13 = getelementptr inbounds [310 x i8], [310 x i8]* %1, i64 0, i64 0
  %14 = call i64 @strlen(i8* %13) #4
  %15 = trunc i64 %14 to i32
  store i32 %15, i32* %6, align 4
  store i32 0, i32* %7, align 4
  store i32 0, i32* %2, align 4
  br label %16

16:                                               ; preds = %85, %0
  %17 = load i32, i32* %2, align 4
  %18 = load i32, i32* %6, align 4
  %19 = icmp slt i32 %17, %18
  br i1 %19, label %20, label %88

20:                                               ; preds = %16
  %21 = load i32, i32* %2, align 4
  %22 = sext i32 %21 to i64
  %23 = getelementptr inbounds [310 x i8], [310 x i8]* %1, i64 0, i64 %22
  %24 = load i8, i8* %23, align 1
  %25 = sext i8 %24 to i32
  %26 = icmp sge i32 %25, 48
  br i1 %26, label %27, label %49

27:                                               ; preds = %20
  %28 = load i32, i32* %2, align 4
  %29 = sext i32 %28 to i64
  %30 = getelementptr inbounds [310 x i8], [310 x i8]* %1, i64 0, i64 %29
  %31 = load i8, i8* %30, align 1
  %32 = sext i8 %31 to i32
  %33 = icmp sle i32 %32, 57
  br i1 %33, label %34, label %49

34:                                               ; preds = %27
  %35 = load i32, i32* %7, align 4
  %36 = icmp eq i32 %35, 0
  br i1 %36, label %37, label %49

37:                                               ; preds = %34
  %38 = load i32, i32* %3, align 4
  %39 = add nsw i32 %38, 1
  store i32 %39, i32* %3, align 4
  %40 = load i32, i32* %2, align 4
  %41 = sext i32 %40 to i64
  %42 = getelementptr inbounds [310 x i8], [310 x i8]* %1, i64 0, i64 %41
  %43 = load i8, i8* %42, align 1
  %44 = sext i8 %43 to i32
  %45 = sub nsw i32 %44, 48
  %46 = load i32, i32* %3, align 4
  %47 = sext i32 %46 to i64
  %48 = getelementptr inbounds [300 x i32], [300 x i32]* %5, i64 0, i64 %47
  store i32 %45, i32* %48, align 4
  store i32 1, i32* %7, align 4
  br label %84

49:                                               ; preds = %34, %27, %20
  %50 = load i32, i32* %2, align 4
  %51 = sext i32 %50 to i64
  %52 = getelementptr inbounds [310 x i8], [310 x i8]* %1, i64 0, i64 %51
  %53 = load i8, i8* %52, align 1
  %54 = sext i8 %53 to i32
  %55 = icmp sge i32 %54, 48
  br i1 %55, label %56, label %82

56:                                               ; preds = %49
  %57 = load i32, i32* %2, align 4
  %58 = sext i32 %57 to i64
  %59 = getelementptr inbounds [310 x i8], [310 x i8]* %1, i64 0, i64 %58
  %60 = load i8, i8* %59, align 1
  %61 = sext i8 %60 to i32
  %62 = icmp sle i32 %61, 57
  br i1 %62, label %63, label %82

63:                                               ; preds = %56
  %64 = load i32, i32* %7, align 4
  %65 = icmp eq i32 %64, 1
  br i1 %65, label %66, label %82

66:                                               ; preds = %63
  %67 = load i32, i32* %3, align 4
  %68 = sext i32 %67 to i64
  %69 = getelementptr inbounds [300 x i32], [300 x i32]* %5, i64 0, i64 %68
  %70 = load i32, i32* %69, align 4
  %71 = mul nsw i32 %70, 10
  %72 = load i32, i32* %2, align 4
  %73 = sext i32 %72 to i64
  %74 = getelementptr inbounds [310 x i8], [310 x i8]* %1, i64 0, i64 %73
  %75 = load i8, i8* %74, align 1
  %76 = sext i8 %75 to i32
  %77 = add nsw i32 %71, %76
  %78 = sub nsw i32 %77, 48
  %79 = load i32, i32* %3, align 4
  %80 = sext i32 %79 to i64
  %81 = getelementptr inbounds [300 x i32], [300 x i32]* %5, i64 0, i64 %80
  store i32 %78, i32* %81, align 4
  store i32 1, i32* %7, align 4
  br label %83

82:                                               ; preds = %63, %56, %49
  store i32 0, i32* %7, align 4
  br label %83

83:                                               ; preds = %82, %66
  br label %84

84:                                               ; preds = %83, %37
  br label %85

85:                                               ; preds = %84
  %86 = load i32, i32* %2, align 4
  %87 = add nsw i32 %86, 1
  store i32 %87, i32* %2, align 4
  br label %16

88:                                               ; preds = %16
  store i32 100, i32* %8, align 4
  %89 = load i32, i32* %3, align 4
  %90 = icmp eq i32 %89, 0
  br i1 %90, label %91, label %93

91:                                               ; preds = %88
  %92 = call i32 (i8*, ...) @printf(i8* getelementptr inbounds ([3 x i8], [3 x i8]* @.str, i64 0, i64 0))
  br label %212

93:                                               ; preds = %88
  store i32 0, i32* %8, align 4
  store i32 1, i32* %2, align 4
  br label %94

94:                                               ; preds = %108, %93
  %95 = load i32, i32* %2, align 4
  %96 = load i32, i32* %3, align 4
  %97 = icmp sle i32 %95, %96
  br i1 %97, label %98, label %111

98:                                               ; preds = %94
  %99 = load i32, i32* %2, align 4
  %100 = sext i32 %99 to i64
  %101 = getelementptr inbounds [300 x i32], [300 x i32]* %5, i64 0, i64 %100
  %102 = load i32, i32* %101, align 4
  %103 = getelementptr inbounds [300 x i32], [300 x i32]* %5, i64 0, i64 0
  %104 = load i32, i32* %103, align 16
  %105 = icmp ne i32 %102, %104
  br i1 %105, label %106, label %107

106:                                              ; preds = %98
  store i32 1, i32* %8, align 4
  br label %107

107:                                              ; preds = %106, %98
  br label %108

108:                                              ; preds = %107
  %109 = load i32, i32* %2, align 4
  %110 = add nsw i32 %109, 1
  store i32 %110, i32* %2, align 4
  br label %94

111:                                              ; preds = %94
  %112 = load i32, i32* %8, align 4
  %113 = icmp eq i32 %112, 0
  br i1 %113, label %114, label %116

114:                                              ; preds = %111
  %115 = call i32 (i8*, ...) @printf(i8* getelementptr inbounds ([3 x i8], [3 x i8]* @.str, i64 0, i64 0))
  br label %211

116:                                              ; preds = %111
  %117 = load i32, i32* %3, align 4
  %118 = add nsw i32 %117, 1
  store i32 %118, i32* %3, align 4
  store i32 0, i32* %4, align 4
  br label %119

119:                                              ; preds = %153, %116
  %120 = load i32, i32* %4, align 4
  %121 = load i32, i32* %3, align 4
  %122 = icmp slt i32 %120, %121
  br i1 %122, label %123, label %156

123:                                              ; preds = %119
  %124 = load i32, i32* %4, align 4
  %125 = add nsw i32 %124, 1
  store i32 %125, i32* %2, align 4
  br label %126

126:                                              ; preds = %149, %123
  %127 = load i32, i32* %2, align 4
  %128 = load i32, i32* %3, align 4
  %129 = icmp slt i32 %127, %128
  br i1 %129, label %130, label %152

130:                                              ; preds = %126
  %131 = load i32, i32* %2, align 4
  %132 = load i32, i32* %4, align 4
  %133 = icmp ne i32 %131, %132
  br i1 %133, label %134, label %148

134:                                              ; preds = %130
  %135 = load i32, i32* %2, align 4
  %136 = sext i32 %135 to i64
  %137 = getelementptr inbounds [300 x i32], [300 x i32]* %5, i64 0, i64 %136
  %138 = load i32, i32* %137, align 4
  %139 = load i32, i32* %4, align 4
  %140 = sext i32 %139 to i64
  %141 = getelementptr inbounds [300 x i32], [300 x i32]* %5, i64 0, i64 %140
  %142 = load i32, i32* %141, align 4
  %143 = icmp eq i32 %138, %142
  br i1 %143, label %144, label %148

144:                                              ; preds = %134
  %145 = load i32, i32* %4, align 4
  %146 = sext i32 %145 to i64
  %147 = getelementptr inbounds [300 x i32], [300 x i32]* %5, i64 0, i64 %146
  store i32 -1, i32* %147, align 4
  br label %148

148:                                              ; preds = %144, %134, %130
  br label %149

149:                                              ; preds = %148
  %150 = load i32, i32* %2, align 4
  %151 = add nsw i32 %150, 1
  store i32 %151, i32* %2, align 4
  br label %126

152:                                              ; preds = %126
  br label %153

153:                                              ; preds = %152
  %154 = load i32, i32* %4, align 4
  %155 = add nsw i32 %154, 1
  store i32 %155, i32* %4, align 4
  br label %119

156:                                              ; preds = %119
  store i32 0, i32* %4, align 4
  br label %157

157:                                              ; preds = %204, %156
  %158 = load i32, i32* %4, align 4
  %159 = load i32, i32* %3, align 4
  %160 = sub nsw i32 %159, 1
  %161 = icmp slt i32 %158, %160
  br i1 %161, label %162, label %207

162:                                              ; preds = %157
  store i32 0, i32* %2, align 4
  br label %163

163:                                              ; preds = %200, %162
  %164 = load i32, i32* %2, align 4
  %165 = load i32, i32* %3, align 4
  %166 = sub nsw i32 %165, 1
  %167 = load i32, i32* %4, align 4
  %168 = sub nsw i32 %166, %167
  %169 = icmp slt i32 %164, %168
  br i1 %169, label %170, label %203

170:                                              ; preds = %163
  %171 = load i32, i32* %2, align 4
  %172 = sext i32 %171 to i64
  %173 = getelementptr inbounds [300 x i32], [300 x i32]* %5, i64 0, i64 %172
  %174 = load i32, i32* %173, align 4
  %175 = load i32, i32* %2, align 4
  %176 = add nsw i32 %175, 1
  %177 = sext i32 %176 to i64
  %178 = getelementptr inbounds [300 x i32], [300 x i32]* %5, i64 0, i64 %177
  %179 = load i32, i32* %178, align 4
  %180 = icmp slt i32 %174, %179
  br i1 %180, label %181, label %199

181:                                              ; preds = %170
  %182 = load i32, i32* %2, align 4
  %183 = sext i32 %182 to i64
  %184 = getelementptr inbounds [300 x i32], [300 x i32]* %5, i64 0, i64 %183
  %185 = load i32, i32* %184, align 4
  store i32 %185, i32* %9, align 4
  %186 = load i32, i32* %2, align 4
  %187 = add nsw i32 %186, 1
  %188 = sext i32 %187 to i64
  %189 = getelementptr inbounds [300 x i32], [300 x i32]* %5, i64 0, i64 %188
  %190 = load i32, i32* %189, align 4
  %191 = load i32, i32* %2, align 4
  %192 = sext i32 %191 to i64
  %193 = getelementptr inbounds [300 x i32], [300 x i32]* %5, i64 0, i64 %192
  store i32 %190, i32* %193, align 4
  %194 = load i32, i32* %9, align 4
  %195 = load i32, i32* %2, align 4
  %196 = add nsw i32 %195, 1
  %197 = sext i32 %196 to i64
  %198 = getelementptr inbounds [300 x i32], [300 x i32]* %5, i64 0, i64 %197
  store i32 %194, i32* %198, align 4
  br label %199

199:                                              ; preds = %181, %170
  br label %200

200:                                              ; preds = %199
  %201 = load i32, i32* %2, align 4
  %202 = add nsw i32 %201, 1
  store i32 %202, i32* %2, align 4
  br label %163

203:                                              ; preds = %163
  br label %204

204:                                              ; preds = %203
  %205 = load i32, i32* %4, align 4
  %206 = add nsw i32 %205, 1
  store i32 %206, i32* %4, align 4
  br label %157

207:                                              ; preds = %157
  %208 = getelementptr inbounds [300 x i32], [300 x i32]* %5, i64 0, i64 1
  %209 = load i32, i32* %208, align 4
  %210 = call i32 (i8*, ...) @printf(i8* getelementptr inbounds ([3 x i8], [3 x i8]* @.str.1, i64 0, i64 0), i32 %209)
  br label %211

211:                                              ; preds = %207, %114
  br label %212

212:                                              ; preds = %211, %91
  ret void
}

declare dso_local i32 @gets(...) #1

; Function Attrs: argmemonly nounwind willreturn
declare void @llvm.memset.p0i8.i64(i8* nocapture writeonly, i8, i64, i1 immarg) #2

; Function Attrs: nounwind readonly
declare dso_local i64 @strlen(i8*) #3

declare dso_local i32 @printf(i8*, ...) #1


!llvm.module.flags = !{!0}
!llvm.ident = !{!1}

!0 = !{i32 1, !"wchar_size", i32 4}
!1 = !{!"clang version 10.0.0-4ubuntu1 "}
